; Function Attrs: nounwind uwtable
define dso_local range(i32 -1, 65536) i32 @fsm_search_avail(i32 noundef %0, i8 noundef zeroext %1, i1 noundef zeroext %2, i1 noundef zeroext %3) local_unnamed_addr #3 {
  %5 = alloca %struct.RelFileLocator, align 4
  %6 = alloca i32, align 4
  %7 = alloca i32, align 4
  %8 = icmp slt i32 %0, 0
  br i1 %8, label %9, label %15

9:                                                ; preds = %4
  %10 = load ptr, ptr @LocalBufferBlockPointers, align 8
  %11 = xor i32 %0, -1
  %12 = zext nneg i32 %11 to i64
  %13 = getelementptr inbounds nuw ptr, ptr %10, i64 %12
  %14 = load ptr, ptr %13, align 8
  br label %BufferGetPage.exit

15:                                               ; preds = %4
  %16 = load ptr, ptr @BufferBlocks, align 8
  %17 = add nsw i32 %0, -1
  %18 = sext i32 %17 to i64
  %19 = shl nsw i64 %18, 13
  %20 = getelementptr inbounds nuw i8, ptr %16, i64 %19
  br label %BufferGetPage.exit

BufferGetPage.exit:                               ; preds = %9, %15
  %.0.i.i = phi ptr [ %14, %9 ], [ %20, %15 ]
  %21 = getelementptr inbounds nuw i8, ptr %.0.i.i, i64 24
  %22 = getelementptr inbounds nuw i8, ptr %.0.i.i, i64 28
  %23 = load i8, ptr %22, align 4
  %24 = icmp ult i8 %23, %1
  br i1 %24, label %.loopexit51, label %.lr.ph56

.lr.ph56:                                         ; preds = %BufferGetPage.exit
  %25 = getelementptr inbounds nuw i8, ptr %5, i64 4
  %26 = getelementptr inbounds nuw i8, ptr %5, i64 8
  br label %29

.loopexit:                                        ; preds = %85
  call void @MarkBufferDirtyHint(i32 noundef %0, i1 noundef zeroext false) #6
  call void @llvm.lifetime.end.p0(i64 4, ptr nonnull %7) #6
  call void @llvm.lifetime.end.p0(i64 4, ptr nonnull %6) #6
  call void @llvm.lifetime.end.p0(i64 12, ptr nonnull %5) #6
  %27 = load i8, ptr %22, align 4
  %28 = icmp ult i8 %27, %1
  br i1 %28, label %.loopexit51, label %29

29:                                               ; preds = %.lr.ph56, %.loopexit
  %.04255 = phi i1 [ %3, %.lr.ph56 ], [ true, %.loopexit ]
  %30 = load i32, ptr %21, align 4
  %31 = icmp ugt i32 %30, 4068
  %32 = add nuw nsw i32 %30, 4095
  %spec.select = select i1 %31, i32 4095, i32 %32
  %33 = icmp sgt i32 %spec.select, 0
  br i1 %33, label %.lr.ph, label %._crit_edge

.lr.ph:                                           ; preds = %29, %select.unfold
  %.04353 = phi i32 [ %44, %select.unfold ], [ %spec.select, %29 ]
  %34 = zext nneg i32 %.04353 to i64
  %35 = getelementptr inbounds nuw [0 x i8], ptr %22, i64 0, i64 %34
  %36 = load i8, ptr %35, align 1
  %.not = icmp ult i8 %36, %1
  br i1 %.not, label %select.unfold, label %._crit_edge

select.unfold:                                    ; preds = %.lr.ph
  %37 = add nuw i32 %.04353, 1
  %38 = add nuw i32 %.04353, 2
  %39 = and i32 %38, %37
  %40 = icmp eq i32 %39, 0
  %41 = lshr i32 %.04353, 1
  %42 = add nsw i32 %41, -1
  %43 = select i1 %40, i32 %42, i32 %.04353
  %44 = sdiv i32 %43, 2
  %45 = icmp sgt i32 %43, 1
  br i1 %45, label %.lr.ph, label %._crit_edge, !llvm.loop !7

._crit_edge:                                      ; preds = %select.unfold, %.lr.ph, %29
  %.043.lcssa = phi i32 [ %32, %29 ], [ %.04353, %.lr.ph ], [ %44, %select.unfold ]
  %46 = icmp slt i32 %.043.lcssa, 4095
  br i1 %46, label %.lr.ph65, label %._crit_edge._crit_edge

.lr.ph65:                                         ; preds = %._crit_edge, %86
  %.14464 = phi i32 [ %.245, %86 ], [ %.043.lcssa, %._crit_edge ]
  %47 = shl i32 %.14464, 1
  %48 = icmp ult i32 %47, 8164
  br i1 %48, label %49, label %54

49:                                               ; preds = %.lr.ph65
  %50 = or disjoint i32 %47, 1
  %51 = zext nneg i32 %50 to i64
  %52 = getelementptr inbounds nuw [0 x i8], ptr %22, i64 0, i64 %51
  %53 = load i8, ptr %52, align 1
  %.not49 = icmp ult i8 %53, %1
  br i1 %.not49, label %54, label %86, !llvm.loop !8

54:                                               ; preds = %49, %.lr.ph65
  %55 = add i32 %47, 2
  %56 = icmp ult i32 %55, 8164
  br i1 %56, label %57, label %61

57:                                               ; preds = %54
  %58 = zext nneg i32 %55 to i64
  %59 = getelementptr inbounds nuw [0 x i8], ptr %22, i64 0, i64 %58
  %60 = load i8, ptr %59, align 1
  %.not50 = icmp ult i8 %60, %1
  br i1 %.not50, label %61, label %86

61:                                               ; preds = %57, %54
  call void @llvm.lifetime.start.p0(i64 12, ptr nonnull %5) #6
  call void @llvm.lifetime.start.p0(i64 4, ptr nonnull %6) #6
  call void @llvm.lifetime.start.p0(i64 4, ptr nonnull %7) #6
  call void @BufferGetTag(i32 noundef %0, ptr noundef nonnull %5, ptr noundef nonnull %6, ptr noundef nonnull %7) #6
  %62 = call zeroext i1 @errstart(i32 noundef 14, ptr noundef null) #6
  br i1 %62, label %63, label %69

63:                                               ; preds = %61
  %64 = load i32, ptr %7, align 4
  %65 = load i32, ptr %5, align 4
  %66 = load i32, ptr %25, align 4
  %67 = load i32, ptr %26, align 4
  %68 = call i32 (ptr, ...) @errmsg_internal(ptr noundef nonnull @.str, i32 noundef %64, i32 noundef %65, i32 noundef %66, i32 noundef %67) #6
  call void @errfinish(ptr noundef nonnull @.str.1, i32 noundef 277, ptr noundef nonnull @__func__.fsm_search_avail) #6
  br label %69

69:                                               ; preds = %63, %61
  br i1 %.04255, label %.preheader, label %70

70:                                               ; preds = %69
  call void @LockBuffer(i32 noundef %0, i32 noundef 0) #6
  call void @LockBuffer(i32 noundef %0, i32 noundef 2) #6
  br label %.preheader

.preheader:                                       ; preds = %70, %69
  br label %71

71:                                               ; preds = %.preheader, %85
  %indvars.iv.i = phi i64 [ %indvars.iv.next.i, %85 ], [ 4094, %.preheader ]
  %72 = shl nuw i64 %indvars.iv.i, 1
  %73 = add nuw nsw i64 %72, 2
  %74 = icmp samesign ult i64 %indvars.iv.i, 4082
  br i1 %74, label %75, label %.thread.i

75:                                               ; preds = %71
  %76 = or disjoint i64 %72, 1
  %77 = getelementptr inbounds nuw [0 x i8], ptr %22, i64 0, i64 %76
  %78 = load i8, ptr %77, align 1
  %.not32.i = icmp eq i64 %indvars.iv.i, 4081
  br i1 %.not32.i, label %.thread.i, label %79

79:                                               ; preds = %75
  %80 = getelementptr inbounds nuw [0 x i8], ptr %22, i64 0, i64 %73
  %81 = load i8, ptr %80, align 1
  %.0..i = call i8 @llvm.umax.i8(i8 %78, i8 %81)
  br label %.thread.i

.thread.i:                                        ; preds = %79, %75, %71
  %.1.i = phi i8 [ %.0..i, %79 ], [ %78, %75 ], [ 0, %71 ]
  %82 = getelementptr inbounds nuw [0 x i8], ptr %22, i64 0, i64 %indvars.iv.i
  %83 = load i8, ptr %82, align 1
  %.not.i = icmp eq i8 %83, %.1.i
  br i1 %.not.i, label %85, label %84

84:                                               ; preds = %.thread.i
  store i8 %.1.i, ptr %82, align 1
  br label %85

85:                                               ; preds = %84, %.thread.i
  %indvars.iv.next.i = add nsw i64 %indvars.iv.i, -1
  %.not30.i = icmp eq i64 %indvars.iv.i, 0
  br i1 %.not30.i, label %.loopexit, label %71, !llvm.loop !6

86:                                               ; preds = %57, %49
  %.245 = phi i32 [ %50, %49 ], [ %55, %57 ]
  %87 = icmp slt i32 %.245, 4095
  br i1 %87, label %.lr.ph65, label %._crit_edge._crit_edge

._crit_edge._crit_edge:                           ; preds = %._crit_edge, %86
  %.144.lcssa = phi i32 [ %.245, %86 ], [ %.043.lcssa, %._crit_edge ]
  %88 = add nuw i32 %.144.lcssa, 61441
  %89 = and i32 %88, 65535
  %90 = zext i1 %2 to i32
  %91 = add nuw nsw i32 %89, %90
  store i32 %91, ptr %21, align 4
  br label %.loopexit51

.loopexit51:                                      ; preds = %.loopexit, %BufferGetPage.exit, %._crit_edge._crit_edge
  %.041 = phi i32 [ %89, %._crit_edge._crit_edge ], [ -1, %BufferGetPage.exit ], [ -1, %.loopexit ]
  ret i32 %.041
}